target datalayout = "e-m:e-p270:32:32-p271:32:32-p272:64:64-i64:64-i128:128-f80:128-n8:16:32:64-S128"
target triple = "x86_64-pc-linux-gnu"

%class.SpaceInfo = type { ptr, ptr, ptr, ptr, %class.SplitInfo }
%class.SplitInfo = type { i64, i64, ptr, i32, ptr, ptr }
%class.MemRegion = type { ptr, i64 }
%class.ParMarkBitMap = type { ptr, i64, %class.BitMapView, ptr, i64 }
%class.BitMapView = type { %class.BitMap }
%class.BitMap = type { ptr, i64 }
%class.ParallelCompactData = type { ptr, ptr, i64, ptr, i64 }
%class.PSVirtualSpace = type <{ ptr, i64, ptr, ptr, ptr, ptr, i8, [7 x i8] }>
%class.CollectedHeap = type { ptr, ptr, i64, i64, %class.SoftRefPolicy, %class.MemRegion, i8, i64, i32, i32, i32, i32, ptr, ptr }
%class.SoftRefPolicy = type { i8, i8 }
%class.FormatBuffer = type { %class.FormatBufferBase, [256 x i8] }
%class.FormatBufferBase = type { ptr }
%class.PSOldGen = type { ptr, ptr, %class.ObjectStartArray, ptr, ptr, ptr, i64, i64 }
%class.ObjectStartArray = type { [8 x i8], %class.PSVirtualSpace, ptr }
%class.PSYoungGen = type { ptr, %class.MemRegion, ptr, ptr, ptr, ptr, i64, i64, ptr, ptr, ptr, ptr }

@_ZN17PSParallelCompact11_space_infoE = hidden global [4 x %class.SpaceInfo] zeroinitializer, align 16
@_ZN17PSParallelCompact12_mark_bitmapE = hidden global %class.ParMarkBitMap zeroinitializer, align 8
@_ZN17PSParallelCompact13_summary_dataE = hidden global %class.ParallelCompactData zeroinitializer, align 8
@.str.12 = private unnamed_addr constant [95 x i8] c"Unable to allocate %luKB bitmaps for parallel garbage collection for the requested %luKB heap.\00", align 1
@.str.13 = private unnamed_addr constant [99 x i8] c"Unable to allocate %luKB card tables for parallel garbage collection for the requested %luKB heap.\00", align 1
@_ZN20ParallelScavengeHeap10_young_genE = external global ptr, align 8
@_ZN20ParallelScavengeHeap8_old_genE = external global ptr, align 8
@_ZN8Universe14_collectedHeapE = external global ptr, align 8

; Function Attrs: mustprogress nounwind uwtable
define linkonce_odr hidden noundef ptr @_ZNK14PSVirtualSpace17reserved_low_addrEv(ptr noundef nonnull align 8 dereferenceable(49) %0) #1 comdat align 2 {
  %2 = alloca ptr, align 8
  store ptr %0, ptr %2, align 8
  %3 = load ptr, ptr %2, align 8
  %4 = getelementptr inbounds %class.PSVirtualSpace, ptr %3, i32 0, i32 2
  %5 = load ptr, ptr %4, align 8
  ret ptr %5
}

; Function Attrs: mustprogress nounwind uwtable
define linkonce_odr hidden noundef ptr @_ZN8Universe4heapEv() #1 comdat align 2 {
  %1 = load ptr, ptr @_ZN8Universe14_collectedHeapE, align 8
  ret ptr %1
}

; Function Attrs: mustprogress nounwind uwtable
define hidden noundef zeroext i1 @_ZN19ParallelCompactData22initialize_region_dataEm(ptr noundef nonnull align 8 dereferenceable(40) %0, i64 noundef %1) #1 align 2 {
  %3 = alloca i1, align 1
  %4 = alloca ptr, align 8
  %5 = alloca i64, align 8
  %6 = alloca i64, align 8
  store ptr %0, ptr %4, align 8
  store i64 %1, ptr %5, align 8
  %7 = load ptr, ptr %4, align 8
  %8 = load i64, ptr %5, align 8
  %9 = lshr i64 %8, 16
  store i64 %9, ptr %6, align 8
  %10 = load i64, ptr %6, align 8
  %11 = call noundef ptr @_ZN19ParallelCompactData13create_vspaceEmm(ptr noundef nonnull align 8 dereferenceable(40) %7, i64 noundef %10, i64 noundef 40)
  %12 = getelementptr inbounds %class.ParallelCompactData, ptr %7, i32 0, i32 1
  store ptr %11, ptr %12, align 8
  %13 = getelementptr inbounds %class.ParallelCompactData, ptr %7, i32 0, i32 1
  %14 = load ptr, ptr %13, align 8
  %15 = icmp ne ptr %14, null
  br i1 %15, label %16, label %23

16:                                               ; preds = %2
  %17 = getelementptr inbounds %class.ParallelCompactData, ptr %7, i32 0, i32 1
  %18 = load ptr, ptr %17, align 8
  %19 = call noundef ptr @_ZNK14PSVirtualSpace17reserved_low_addrEv(ptr noundef nonnull align 8 dereferenceable(49) %18)
  %20 = getelementptr inbounds %class.ParallelCompactData, ptr %7, i32 0, i32 3
  store ptr %19, ptr %20, align 8
  %21 = load i64, ptr %6, align 8
  %22 = getelementptr inbounds %class.ParallelCompactData, ptr %7, i32 0, i32 4
  store i64 %21, ptr %22, align 8
  store i1 true, ptr %3, align 1
  br label %24

23:                                               ; preds = %2
  store i1 false, ptr %3, align 1
  br label %24

24:                                               ; preds = %23, %16
  %25 = load i1, ptr %3, align 1
  ret i1 %25
}

; Function Attrs: mustprogress nounwind uwtable
define linkonce_odr hidden noundef i64 @_ZNK9MemRegion9word_sizeEv(ptr noundef nonnull align 8 dereferenceable(16) %0) #1 comdat align 2 {
  %2 = alloca ptr, align 8
  store ptr %0, ptr %2, align 8
  %3 = load ptr, ptr %2, align 8
  %4 = getelementptr inbounds %class.MemRegion, ptr %3, i32 0, i32 1
  %5 = load i64, ptr %4, align 8
  ret i64 %5
}

; Function Attrs: mustprogress nounwind uwtable
define linkonce_odr hidden noundef ptr @_ZNK9MemRegion5startEv(ptr noundef nonnull align 8 dereferenceable(16) %0) #1 comdat align 2 {
  %2 = alloca ptr, align 8
  store ptr %0, ptr %2, align 8
  %3 = load ptr, ptr %2, align 8
  %4 = getelementptr inbounds %class.MemRegion, ptr %3, i32 0, i32 0
  %5 = load ptr, ptr %4, align 8
  ret ptr %5
}

; Function Attrs: mustprogress nounwind uwtable
define linkonce_odr hidden void @_ZN9SpaceInfo15set_start_arrayEP16ObjectStartArray(ptr noundef nonnull align 8 dereferenceable(80) %0, ptr noundef %1) #1 comdat align 2 {
  %3 = alloca ptr, align 8
  %4 = alloca ptr, align 8
  store ptr %0, ptr %3, align 8
  store ptr %1, ptr %4, align 8
  %5 = load ptr, ptr %3, align 8
  %6 = load ptr, ptr %4, align 8
  %7 = getelementptr inbounds %class.SpaceInfo, ptr %5, i32 0, i32 3
  store ptr %6, ptr %7, align 8
  ret void
}

; Function Attrs: mustprogress nounwind uwtable
define linkonce_odr hidden noundef ptr @_ZN8PSOldGen11start_arrayEv(ptr noundef nonnull align 8 dereferenceable(128) %0) #1 comdat align 2 {
  %2 = alloca ptr, align 8
  store ptr %0, ptr %2, align 8
  %3 = load ptr, ptr %2, align 8
  %4 = getelementptr inbounds %class.PSOldGen, ptr %3, i32 0, i32 2
  ret ptr %4
}

; Function Attrs: mustprogress nounwind uwtable
define linkonce_odr hidden noundef ptr @_ZNK10PSYoungGen8to_spaceEv(ptr noundef nonnull align 8 dereferenceable(104) %0) #1 comdat align 2 {
  %2 = alloca ptr, align 8
  store ptr %0, ptr %2, align 8
  %3 = load ptr, ptr %2, align 8
  %4 = getelementptr inbounds %class.PSYoungGen, ptr %3, i32 0, i32 5
  %5 = load ptr, ptr %4, align 8
  ret ptr %5
}

; Function Attrs: mustprogress nounwind uwtable
define linkonce_odr hidden noundef ptr @_ZNK10PSYoungGen10from_spaceEv(ptr noundef nonnull align 8 dereferenceable(104) %0) #1 comdat align 2 {
  %2 = alloca ptr, align 8
  store ptr %0, ptr %2, align 8
  %3 = load ptr, ptr %2, align 8
  %4 = getelementptr inbounds %class.PSYoungGen, ptr %3, i32 0, i32 4
  %5 = load ptr, ptr %4, align 8
  ret ptr %5
}

; Function Attrs: mustprogress nounwind uwtable
define linkonce_odr hidden noundef ptr @_ZNK10PSYoungGen10eden_spaceEv(ptr noundef nonnull align 8 dereferenceable(104) %0) #1 comdat align 2 {
  %2 = alloca ptr, align 8
  store ptr %0, ptr %2, align 8
  %3 = load ptr, ptr %2, align 8
  %4 = getelementptr inbounds %class.PSYoungGen, ptr %3, i32 0, i32 3
  %5 = load ptr, ptr %4, align 8
  ret ptr %5
}

; Function Attrs: mustprogress nounwind uwtable
define linkonce_odr hidden void @_ZN9SpaceInfo9set_spaceEP12MutableSpace(ptr noundef nonnull align 8 dereferenceable(80) %0, ptr noundef %1) #1 comdat align 2 {
  %3 = alloca ptr, align 8
  %4 = alloca ptr, align 8
  store ptr %0, ptr %3, align 8
  store ptr %1, ptr %4, align 8
  %5 = load ptr, ptr %3, align 8
  %6 = load ptr, ptr %4, align 8
  %7 = getelementptr inbounds %class.SpaceInfo, ptr %5, i32 0, i32 0
  store ptr %6, ptr %7, align 8
  ret void
}

; Function Attrs: mustprogress nounwind uwtable
define linkonce_odr hidden noundef ptr @_ZNK8PSOldGen12object_spaceEv(ptr noundef nonnull align 8 dereferenceable(128) %0) #1 comdat align 2 {
  %2 = alloca ptr, align 8
  store ptr %0, ptr %2, align 8
  %3 = load ptr, ptr %2, align 8
  %4 = getelementptr inbounds %class.PSOldGen, ptr %3, i32 0, i32 3
  %5 = load ptr, ptr %4, align 8
  ret ptr %5
}

; Function Attrs: mustprogress nounwind uwtable
define linkonce_odr hidden noundef ptr @_ZN20ParallelScavengeHeap7old_genEv() #1 comdat align 2 {
  %1 = load ptr, ptr @_ZN20ParallelScavengeHeap8_old_genE, align 8
  ret ptr %1
}

; Function Attrs: mustprogress nounwind uwtable
define linkonce_odr hidden noundef ptr @_ZN20ParallelScavengeHeap9young_genEv() #1 comdat align 2 {
  %1 = load ptr, ptr @_ZN20ParallelScavengeHeap10_young_genE, align 8
  ret ptr %1
}

; Function Attrs: mustprogress nounwind uwtable
define linkonce_odr hidden noundef ptr @_ZN13CollectedHeap10named_heapI20ParallelScavengeHeapEEPT_NS_4NameE(i32 noundef %0) #1 comdat align 2 {
  %2 = alloca i32, align 4
  %3 = alloca ptr, align 8
  store i32 %0, ptr %2, align 4
  %4 = call noundef ptr @_ZN8Universe4heapEv()
  store ptr %4, ptr %3, align 8
  %5 = load ptr, ptr %3, align 8
  ret ptr %5
}

; Function Attrs: mustprogress nounwind uwtable
define linkonce_odr hidden noundef i64 @_ZNK19ParallelCompactData18reserved_byte_sizeEv(ptr noundef nonnull align 8 dereferenceable(40) %0) #1 comdat align 2 {
  %2 = alloca ptr, align 8
  store ptr %0, ptr %2, align 8
  %3 = load ptr, ptr %2, align 8
  %4 = getelementptr inbounds %class.ParallelCompactData, ptr %3, i32 0, i32 2
  %5 = load i64, ptr %4, align 8
  ret i64 %5
}

; Function Attrs: mustprogress nounwind uwtable
define hidden noundef zeroext i1 @_ZN19ParallelCompactData10initializeE9MemRegion(ptr noundef nonnull align 8 dereferenceable(40) %0, ptr %1, i64 %2) #1 align 2 {
  %4 = alloca %class.MemRegion, align 8
  %5 = alloca ptr, align 8
  %6 = alloca i64, align 8
  %7 = getelementptr inbounds { ptr, i64 }, ptr %4, i32 0, i32 0
  store ptr %1, ptr %7, align 8
  %8 = getelementptr inbounds { ptr, i64 }, ptr %4, i32 0, i32 1
  store i64 %2, ptr %8, align 8
  store ptr %0, ptr %5, align 8
  %9 = load ptr, ptr %5, align 8
  %10 = call noundef ptr @_ZNK9MemRegion5startEv(ptr noundef nonnull align 8 dereferenceable(16) %4)
  %11 = getelementptr inbounds %class.ParallelCompactData, ptr %9, i32 0, i32 0
  store ptr %10, ptr %11, align 8
  %12 = call noundef i64 @_ZNK9MemRegion9word_sizeEv(ptr noundef nonnull align 8 dereferenceable(16) %4)
  store i64 %12, ptr %6, align 8
  %13 = load i64, ptr %6, align 8
  %14 = call noundef zeroext i1 @_ZN19ParallelCompactData22initialize_region_dataEm(ptr noundef nonnull align 8 dereferenceable(40) %9, i64 noundef %13)
  ret i1 %14
}

; Function Attrs: mustprogress nounwind uwtable
define linkonce_odr hidden noundef ptr @_ZNK16FormatBufferBasecvPKcEv(ptr noundef nonnull align 8 dereferenceable(8) %0) #1 comdat align 2 {
  %2 = alloca ptr, align 8
  store ptr %0, ptr %2, align 8
  %3 = load ptr, ptr %2, align 8
  %4 = getelementptr inbounds %class.FormatBufferBase, ptr %3, i32 0, i32 0
  %5 = load ptr, ptr %4, align 8
  ret ptr %5
}

; Function Attrs: mustprogress nounwind uwtable
define linkonce_odr hidden noundef i64 @_ZNK9MemRegion9byte_sizeEv(ptr noundef nonnull align 8 dereferenceable(16) %0) #1 comdat align 2 {
  %2 = alloca ptr, align 8
  store ptr %0, ptr %2, align 8
  %3 = load ptr, ptr %2, align 8
  %4 = getelementptr inbounds %class.MemRegion, ptr %3, i32 0, i32 1
  %5 = load i64, ptr %4, align 8
  %6 = mul i64 %5, 8
  ret i64 %6
}

; Function Attrs: mustprogress nounwind uwtable
define linkonce_odr hidden noundef i64 @_ZNK13ParMarkBitMap18reserved_byte_sizeEv(ptr noundef nonnull align 8 dereferenceable(48) %0) #1 comdat align 2 {
  %2 = alloca ptr, align 8
  store ptr %0, ptr %2, align 8
  %3 = load ptr, ptr %2, align 8
  %4 = getelementptr inbounds %class.ParMarkBitMap, ptr %3, i32 0, i32 4
  %5 = load i64, ptr %4, align 8
  ret i64 %5
}

; Function Attrs: mustprogress nounwind uwtable
define hidden void @_ZN17PSParallelCompact21initialize_space_infoEv() #1 align 2 {
  %1 = alloca ptr, align 8
  %2 = alloca ptr, align 8
  call void @llvm.memset.p0.i64(ptr align 16 @_ZN17PSParallelCompact11_space_infoE, i8 0, i64 320, i1 false)
  %3 = call noundef ptr @_ZN20ParallelScavengeHeap4heapEv()
  store ptr %3, ptr %1, align 8
  %4 = call noundef ptr @_ZN20ParallelScavengeHeap9young_genEv()
  store ptr %4, ptr %2, align 8
  %5 = call noundef ptr @_ZN20ParallelScavengeHeap7old_genEv()
  %6 = call noundef ptr @_ZNK8PSOldGen12object_spaceEv(ptr noundef nonnull align 8 dereferenceable(128) %5)
  call void @_ZN9SpaceInfo9set_spaceEP12MutableSpace(ptr noundef nonnull align 8 dereferenceable(80) @_ZN17PSParallelCompact11_space_infoE, ptr noundef %6)
  %7 = load ptr, ptr %2, align 8
  %8 = call noundef ptr @_ZNK10PSYoungGen10eden_spaceEv(ptr noundef nonnull align 8 dereferenceable(104) %7)
  call void @_ZN9SpaceInfo9set_spaceEP12MutableSpace(ptr noundef nonnull align 8 dereferenceable(80) getelementptr inbounds ([4 x %class.SpaceInfo], ptr @_ZN17PSParallelCompact11_space_infoE, i64 0, i64 1), ptr noundef %8)
  %9 = load ptr, ptr %2, align 8
  %10 = call noundef ptr @_ZNK10PSYoungGen10from_spaceEv(ptr noundef nonnull align 8 dereferenceable(104) %9)
  call void @_ZN9SpaceInfo9set_spaceEP12MutableSpace(ptr noundef nonnull align 8 dereferenceable(80) getelementptr inbounds ([4 x %class.SpaceInfo], ptr @_ZN17PSParallelCompact11_space_infoE, i64 0, i64 2), ptr noundef %10)
  %11 = load ptr, ptr %2, align 8
  %12 = call noundef ptr @_ZNK10PSYoungGen8to_spaceEv(ptr noundef nonnull align 8 dereferenceable(104) %11)
  call void @_ZN9SpaceInfo9set_spaceEP12MutableSpace(ptr noundef nonnull align 8 dereferenceable(80) getelementptr inbounds ([4 x %class.SpaceInfo], ptr @_ZN17PSParallelCompact11_space_infoE, i64 0, i64 3), ptr noundef %12)
  %13 = call noundef ptr @_ZN20ParallelScavengeHeap7old_genEv()
  %14 = call noundef ptr @_ZN8PSOldGen11start_arrayEv(ptr noundef nonnull align 8 dereferenceable(128) %13)
  call void @_ZN9SpaceInfo15set_start_arrayEP16ObjectStartArray(ptr noundef nonnull align 8 dereferenceable(80) @_ZN17PSParallelCompact11_space_infoE, ptr noundef %14)
  ret void
}

; Function Attrs: mustprogress nounwind uwtable
define linkonce_odr hidden { ptr, i64 } @_ZNK20ParallelScavengeHeap15reserved_regionEv(ptr noundef nonnull align 8 dereferenceable(264) %0) #1 comdat align 2 {
  %2 = alloca %class.MemRegion, align 8
  %3 = alloca ptr, align 8
  store ptr %0, ptr %3, align 8
  %4 = load ptr, ptr %3, align 8
  %5 = getelementptr inbounds %class.CollectedHeap, ptr %4, i32 0, i32 5
  call void @llvm.memcpy.p0.p0.i64(ptr align 8 %2, ptr align 8 %5, i64 16, i1 false)
  %6 = load { ptr, i64 }, ptr %2, align 8
  ret { ptr, i64 } %6
}

; Function Attrs: mustprogress nounwind uwtable
define linkonce_odr hidden noundef ptr @_ZN20ParallelScavengeHeap4heapEv() #1 comdat align 2 {
  %1 = call noundef ptr @_ZN13CollectedHeap10named_heapI20ParallelScavengeHeapEEPT_NS_4NameE(i32 noundef 2)
  ret ptr %1
}

; Function Attrs: mustprogress nounwind uwtable
define hidden noundef zeroext i1 @_ZN17PSParallelCompact19initialize_aux_dataEv() #1 align 2 {
  %1 = alloca i1, align 1
  %2 = alloca ptr, align 8
  %3 = alloca %class.MemRegion, align 8
  %4 = alloca %class.MemRegion, align 8
  %5 = alloca %class.FormatBuffer, align 8
  %6 = alloca %class.MemRegion, align 8
  %7 = alloca %class.FormatBuffer, align 8
  %8 = call noundef ptr @_ZN20ParallelScavengeHeap4heapEv()
  store ptr %8, ptr %2, align 8
  %9 = load ptr, ptr %2, align 8
  %10 = call { ptr, i64 } @_ZNK20ParallelScavengeHeap15reserved_regionEv(ptr noundef nonnull align 8 dereferenceable(264) %9)
  %11 = getelementptr inbounds { ptr, i64 }, ptr %3, i32 0, i32 0
  %12 = extractvalue { ptr, i64 } %10, 0
  store ptr %12, ptr %11, align 8
  %13 = getelementptr inbounds { ptr, i64 }, ptr %3, i32 0, i32 1
  %14 = extractvalue { ptr, i64 } %10, 1
  store i64 %14, ptr %13, align 8
  call void @_ZN17PSParallelCompact21initialize_space_infoEv()
  call void @llvm.memcpy.p0.p0.i64(ptr align 8 %4, ptr align 8 %3, i64 16, i1 false)
  %15 = getelementptr inbounds { ptr, i64 }, ptr %4, i32 0, i32 0
  %16 = load ptr, ptr %15, align 8
  %17 = getelementptr inbounds { ptr, i64 }, ptr %4, i32 0, i32 1
  %18 = load i64, ptr %17, align 8
  %19 = call noundef zeroext i1 @_ZN13ParMarkBitMap10initializeE9MemRegion(ptr noundef nonnull align 8 dereferenceable(48) @_ZN17PSParallelCompact12_mark_bitmapE, ptr %16, i64 %18)
  br i1 %19, label %26, label %20

20:                                               ; preds = %0
  %21 = call noundef i64 @_ZNK13ParMarkBitMap18reserved_byte_sizeEv(ptr noundef nonnull align 8 dereferenceable(48) @_ZN17PSParallelCompact12_mark_bitmapE)
  %22 = udiv i64 %21, 1024
  %23 = call noundef i64 @_ZNK9MemRegion9byte_sizeEv(ptr noundef nonnull align 8 dereferenceable(16) %3)
  %24 = udiv i64 %23, 1024
  call void (ptr, ptr, ...) @_ZN12FormatBufferILm256EEC2EPKcz(ptr noundef nonnull align 8 dereferenceable(264) %5, ptr noundef @.str.12, i64 noundef %22, i64 noundef %24)
  %25 = call noundef ptr @_ZNK16FormatBufferBasecvPKcEv(ptr noundef nonnull align 8 dereferenceable(8) %5)
  call void @_Z33vm_shutdown_during_initializationPKcS0_(ptr noundef %25, ptr noundef null)
  store i1 false, ptr %1, align 1
  br label %39

26:                                               ; preds = %0
  call void @llvm.memcpy.p0.p0.i64(ptr align 8 %6, ptr align 8 %3, i64 16, i1 false)
  %27 = getelementptr inbounds { ptr, i64 }, ptr %6, i32 0, i32 0
  %28 = load ptr, ptr %27, align 8
  %29 = getelementptr inbounds { ptr, i64 }, ptr %6, i32 0, i32 1
  %30 = load i64, ptr %29, align 8
  %31 = call noundef zeroext i1 @_ZN19ParallelCompactData10initializeE9MemRegion(ptr noundef nonnull align 8 dereferenceable(40) @_ZN17PSParallelCompact13_summary_dataE, ptr %28, i64 %30)
  br i1 %31, label %38, label %32

32:                                               ; preds = %26
  %33 = call noundef i64 @_ZNK19ParallelCompactData18reserved_byte_sizeEv(ptr noundef nonnull align 8 dereferenceable(40) @_ZN17PSParallelCompact13_summary_dataE)
  %34 = udiv i64 %33, 1024
  %35 = call noundef i64 @_ZNK9MemRegion9byte_sizeEv(ptr noundef nonnull align 8 dereferenceable(16) %3)
  %36 = udiv i64 %35, 1024
  call void (ptr, ptr, ...) @_ZN12FormatBufferILm256EEC2EPKcz(ptr noundef nonnull align 8 dereferenceable(264) %7, ptr noundef @.str.13, i64 noundef %34, i64 noundef %36)
  %37 = call noundef ptr @_ZNK16FormatBufferBasecvPKcEv(ptr noundef nonnull align 8 dereferenceable(8) %7)
  call void @_Z33vm_shutdown_during_initializationPKcS0_(ptr noundef %37, ptr noundef null)
  store i1 false, ptr %1, align 1
  br label %39

38:                                               ; preds = %26
  store i1 true, ptr %1, align 1
  br label %39

39:                                               ; preds = %38, %32, %20
  %40 = load i1, ptr %1, align 1
  ret i1 %40
}