; Function Attrs: mustprogress nounwind uwtable
define hidden noundef zeroext i1 @_ZN17PSParallelCompact19initialize_aux_dataEv() local_unnamed_addr #0 align 2 {
  %1 = alloca %class.FormatBuffer, align 8
  %2 = alloca %class.FormatBuffer, align 8
  %3 = load ptr, ptr @_ZN8Universe14_collectedHeapE, align 8
  %4 = getelementptr inbounds i8, ptr %3, i64 40
  %.sroa.0.0.copyload.i = load ptr, ptr %4, align 8
  %.sroa.2.0..sroa_idx.i = getelementptr inbounds i8, ptr %3, i64 48
  %.sroa.2.0.copyload.i = load i64, ptr %.sroa.2.0..sroa_idx.i, align 8
  tail call void @llvm.memset.p0.i64(ptr noundef nonnull align 16 dereferenceable(320) @_ZN17PSParallelCompact11_space_infoE, i8 0, i64 320, i1 false)
  %5 = load ptr, ptr @_ZN20ParallelScavengeHeap10_young_genE, align 8
  %6 = load ptr, ptr @_ZN20ParallelScavengeHeap8_old_genE, align 8
  %7 = getelementptr inbounds i8, ptr %6, i64 88
  %8 = load ptr, ptr %7, align 8
  store ptr %8, ptr @_ZN17PSParallelCompact11_space_infoE, align 16
  %9 = getelementptr inbounds i8, ptr %5, i64 32
  %10 = load ptr, ptr %9, align 8
  store ptr %10, ptr getelementptr inbounds (i8, ptr @_ZN17PSParallelCompact11_space_infoE, i64 80), align 16
  %11 = getelementptr inbounds i8, ptr %5, i64 40
  %12 = load ptr, ptr %11, align 8
  store ptr %12, ptr getelementptr inbounds (i8, ptr @_ZN17PSParallelCompact11_space_infoE, i64 160), align 16
  %13 = getelementptr inbounds i8, ptr %5, i64 48
  %14 = load ptr, ptr %13, align 8
  store ptr %14, ptr getelementptr inbounds (i8, ptr @_ZN17PSParallelCompact11_space_infoE, i64 240), align 16
  %15 = getelementptr inbounds i8, ptr %6, i64 16
  store ptr %15, ptr getelementptr inbounds (i8, ptr @_ZN17PSParallelCompact11_space_infoE, i64 24), align 8
  %16 = tail call noundef zeroext i1 @_ZN13ParMarkBitMap10initializeE9MemRegion(ptr noundef nonnull align 8 dereferenceable(48) @_ZN17PSParallelCompact12_mark_bitmapE, ptr %.sroa.0.0.copyload.i, i64 %.sroa.2.0.copyload.i) #25
  br i1 %16, label %23, label %17

17:                                               ; preds = %0
  %18 = load i64, ptr getelementptr inbounds (i8, ptr @_ZN17PSParallelCompact12_mark_bitmapE, i64 40), align 8
  %19 = lshr i64 %18, 10
  %20 = lshr i64 %.sroa.2.0.copyload.i, 7
  %21 = and i64 %20, 18014398509481983
  call void (ptr, ptr, ...) @_ZN12FormatBufferILm256EEC2EPKcz(ptr noundef nonnull align 8 dereferenceable(264) %1, ptr noundef nonnull @.str.12, i64 noundef %19, i64 noundef %21)
  %22 = load ptr, ptr %1, align 8
  call void @_Z33vm_shutdown_during_initializationPKcS0_(ptr noundef %22, ptr noundef null) #25
  br label %33

23:                                               ; preds = %0
  store ptr %.sroa.0.0.copyload.i, ptr @_ZN17PSParallelCompact13_summary_dataE, align 8
  %24 = lshr i64 %.sroa.2.0.copyload.i, 16
  %25 = tail call noundef ptr @_ZN19ParallelCompactData13create_vspaceEmm(ptr noundef nonnull align 8 dereferenceable(40) @_ZN17PSParallelCompact13_summary_dataE, i64 noundef %24, i64 noundef 40)
  store ptr %25, ptr getelementptr inbounds (i8, ptr @_ZN17PSParallelCompact13_summary_dataE, i64 8), align 8
  %.not.i.i.not = icmp eq ptr %25, null
  br i1 %.not.i.i.not, label %_ZN19ParallelCompactData10initializeE9MemRegion.exit, label %_ZN19ParallelCompactData10initializeE9MemRegion.exit.thread

_ZN19ParallelCompactData10initializeE9MemRegion.exit.thread: ; preds = %23
  %26 = getelementptr inbounds i8, ptr %25, i64 16
  %27 = load ptr, ptr %26, align 8
  store ptr %27, ptr getelementptr inbounds (i8, ptr @_ZN17PSParallelCompact13_summary_dataE, i64 24), align 8
  store i64 %24, ptr getelementptr inbounds (i8, ptr @_ZN17PSParallelCompact13_summary_dataE, i64 32), align 8
  br label %33

_ZN19ParallelCompactData10initializeE9MemRegion.exit: ; preds = %23
  %28 = load i64, ptr getelementptr inbounds (i8, ptr @_ZN17PSParallelCompact13_summary_dataE, i64 16), align 8
  %29 = lshr i64 %28, 10
  %30 = lshr i64 %.sroa.2.0.copyload.i, 7
  %31 = and i64 %30, 18014398509481983
  call void (ptr, ptr, ...) @_ZN12FormatBufferILm256EEC2EPKcz(ptr noundef nonnull align 8 dereferenceable(264) %2, ptr noundef nonnull @.str.13, i64 noundef %29, i64 noundef %31)
  %32 = load ptr, ptr %2, align 8
  call void @_Z33vm_shutdown_during_initializationPKcS0_(ptr noundef %32, ptr noundef null) #25
  br label %33

33:                                               ; preds = %_ZN19ParallelCompactData10initializeE9MemRegion.exit.thread, %_ZN19ParallelCompactData10initializeE9MemRegion.exit, %17
  %.0 = phi i1 [ false, %_ZN19ParallelCompactData10initializeE9MemRegion.exit ], [ false, %17 ], [ true, %_ZN19ParallelCompactData10initializeE9MemRegion.exit.thread ]
  ret i1 %.0
}